   1              		.cpu cortex-m4
   2              		.arch armv7e-m
   3              		.fpu fpv4-sp-d16
   4              		.eabi_attribute 27, 1
   5              		.eabi_attribute 28, 1
   6              		.eabi_attribute 20, 1
   7              		.eabi_attribute 21, 1
   8              		.eabi_attribute 23, 3
   9              		.eabi_attribute 24, 1
  10              		.eabi_attribute 25, 1
  11              		.eabi_attribute 26, 1
  12              		.eabi_attribute 30, 1
  13              		.eabi_attribute 34, 1
  14              		.eabi_attribute 18, 4
  15              		.file	"hal.c"
  16              		.text
  17              	.Ltext0:
  18              		.cfi_sections	.debug_frame
  19              		.file 1 "/home/yan/Work/STM32KBD/firmware/code/src/hal.c"
  20              		.section	.text.GPIO_Init,"ax",%progbits
  21              		.align	1
  22              		.global	GPIO_Init
  23              		.syntax unified
  24              		.thumb
  25              		.thumb_func
  27              	GPIO_Init:
  28              	.LFB130:
   1:/home/yan/Work/STM32KBD/firmware/code/src/hal.c **** #include "hal.h"
   2:/home/yan/Work/STM32KBD/firmware/code/src/hal.c **** 
   3:/home/yan/Work/STM32KBD/firmware/code/src/hal.c **** void GPIO_Init(void)
   4:/home/yan/Work/STM32KBD/firmware/code/src/hal.c **** {
  29              		.loc 1 4 1 view -0
  30              		.cfi_startproc
  31              		@ args = 0, pretend = 0, frame = 32
  32              		@ frame_needed = 0, uses_anonymous_args = 0
  33 0000 30B5     		push	{r4, r5, lr}
  34              	.LCFI0:
  35              		.cfi_def_cfa_offset 12
  36              		.cfi_offset 4, -12
  37              		.cfi_offset 5, -8
  38              		.cfi_offset 14, -4
  39 0002 89B0     		sub	sp, sp, #36
  40              	.LCFI1:
  41              		.cfi_def_cfa_offset 48
   5:/home/yan/Work/STM32KBD/firmware/code/src/hal.c **** 
   6:/home/yan/Work/STM32KBD/firmware/code/src/hal.c ****   GPIO_InitTypeDef GPIO_InitStruct = {0};
  42              		.loc 1 6 3 view .LVU1
  43              		.loc 1 6 20 is_stmt 0 view .LVU2
  44 0004 0024     		movs	r4, #0
  45 0006 0394     		str	r4, [sp, #12]
  46 0008 0494     		str	r4, [sp, #16]
  47 000a 0594     		str	r4, [sp, #20]
  48 000c 0694     		str	r4, [sp, #24]
  49 000e 0794     		str	r4, [sp, #28]
   7:/home/yan/Work/STM32KBD/firmware/code/src/hal.c **** 
   8:/home/yan/Work/STM32KBD/firmware/code/src/hal.c ****   __HAL_RCC_GPIOC_CLK_ENABLE();
  50              		.loc 1 8 3 is_stmt 1 view .LVU3
  51              	.LBB2:
  52              		.loc 1 8 3 view .LVU4
  53 0010 0194     		str	r4, [sp, #4]
  54              		.loc 1 8 3 view .LVU5
  55 0012 144B     		ldr	r3, .L3
  56 0014 1A6B     		ldr	r2, [r3, #48]
  57 0016 42F00402 		orr	r2, r2, #4
  58 001a 1A63     		str	r2, [r3, #48]
  59              		.loc 1 8 3 view .LVU6
  60 001c 1A6B     		ldr	r2, [r3, #48]
  61 001e 02F00402 		and	r2, r2, #4
  62 0022 0192     		str	r2, [sp, #4]
  63              		.loc 1 8 3 view .LVU7
  64 0024 019A     		ldr	r2, [sp, #4]
  65              	.LBE2:
  66              		.loc 1 8 3 view .LVU8
   9:/home/yan/Work/STM32KBD/firmware/code/src/hal.c ****   __HAL_RCC_GPIOH_CLK_ENABLE();
  67              		.loc 1 9 3 view .LVU9
  68              	.LBB3:
  69              		.loc 1 9 3 view .LVU10
  70 0026 0294     		str	r4, [sp, #8]
  71              		.loc 1 9 3 view .LVU11
  72 0028 1A6B     		ldr	r2, [r3, #48]
  73 002a 42F08002 		orr	r2, r2, #128
  74 002e 1A63     		str	r2, [r3, #48]
  75              		.loc 1 9 3 view .LVU12
  76 0030 1B6B     		ldr	r3, [r3, #48]
  77 0032 03F08003 		and	r3, r3, #128
  78 0036 0293     		str	r3, [sp, #8]
  79              		.loc 1 9 3 view .LVU13
  80 0038 029B     		ldr	r3, [sp, #8]
  81              	.LBE3:
  82              		.loc 1 9 3 view .LVU14
  10:/home/yan/Work/STM32KBD/firmware/code/src/hal.c **** 
  11:/home/yan/Work/STM32KBD/firmware/code/src/hal.c ****   HAL_GPIO_WritePin(GPIOC, GPIO_PIN_13, GPIO_PIN_RESET);
  83              		.loc 1 11 3 view .LVU15
  84 003a 0B4D     		ldr	r5, .L3+4
  85 003c 2246     		mov	r2, r4
  86 003e 4FF40051 		mov	r1, #8192
  87 0042 2846     		mov	r0, r5
  88 0044 FFF7FEFF 		bl	HAL_GPIO_WritePin
  89              	.LVL0:
  12:/home/yan/Work/STM32KBD/firmware/code/src/hal.c **** 
  13:/home/yan/Work/STM32KBD/firmware/code/src/hal.c ****   GPIO_InitStruct.Pin = GPIO_PIN_13;
  90              		.loc 1 13 3 view .LVU16
  91              		.loc 1 13 23 is_stmt 0 view .LVU17
  92 0048 4FF40053 		mov	r3, #8192
  93 004c 0393     		str	r3, [sp, #12]
  14:/home/yan/Work/STM32KBD/firmware/code/src/hal.c ****   GPIO_InitStruct.Mode = GPIO_MODE_OUTPUT_PP;
  94              		.loc 1 14 3 is_stmt 1 view .LVU18
  95              		.loc 1 14 24 is_stmt 0 view .LVU19
  96 004e 0123     		movs	r3, #1
  97 0050 0493     		str	r3, [sp, #16]
  15:/home/yan/Work/STM32KBD/firmware/code/src/hal.c ****   GPIO_InitStruct.Pull = GPIO_NOPULL;
  98              		.loc 1 15 3 is_stmt 1 view .LVU20
  99              		.loc 1 15 24 is_stmt 0 view .LVU21
 100 0052 0594     		str	r4, [sp, #20]
  16:/home/yan/Work/STM32KBD/firmware/code/src/hal.c ****   GPIO_InitStruct.Speed = GPIO_SPEED_FREQ_LOW;
 101              		.loc 1 16 3 is_stmt 1 view .LVU22
 102              		.loc 1 16 25 is_stmt 0 view .LVU23
 103 0054 0694     		str	r4, [sp, #24]
  17:/home/yan/Work/STM32KBD/firmware/code/src/hal.c ****   HAL_GPIO_Init(GPIOC, &GPIO_InitStruct);
 104              		.loc 1 17 3 is_stmt 1 view .LVU24
 105 0056 03A9     		add	r1, sp, #12
 106 0058 2846     		mov	r0, r5
 107 005a FFF7FEFF 		bl	HAL_GPIO_Init
 108              	.LVL1:
  18:/home/yan/Work/STM32KBD/firmware/code/src/hal.c **** 
  19:/home/yan/Work/STM32KBD/firmware/code/src/hal.c **** }
 109              		.loc 1 19 1 is_stmt 0 view .LVU25
 110 005e 09B0     		add	sp, sp, #36
 111              	.LCFI2:
 112              		.cfi_def_cfa_offset 12
 113              		@ sp needed
 114 0060 30BD     		pop	{r4, r5, pc}
 115              	.L4:
 116 0062 00BF     		.align	2
 117              	.L3:
 118 0064 00380240 		.word	1073887232
 119 0068 00080240 		.word	1073874944
 120              		.cfi_endproc
 121              	.LFE130:
 123              		.text
 124              	.Letext0:
 125              		.file 2 "/usr/lib/gcc/arm-none-eabi/12.2.1/include/stdint.h"
 126              		.file 3 "/home/yan/Work/STM32KBD/firmware/stm32cube_mcu_package/STM32CubeF4/Drivers/CMSIS/Device/S
 127              		.file 4 "/home/yan/Work/STM32KBD/firmware/stm32cube_mcu_package/STM32CubeF4/Drivers/STM32F4xx_HAL_