   1              		.cpu cortex-m4
   2              		.arch armv7e-m
   3              		.fpu fpv4-sp-d16
   4              		.eabi_attribute 27, 1
   5              		.eabi_attribute 28, 1
   6              		.eabi_attribute 20, 1
   7              		.eabi_attribute 21, 1
   8              		.eabi_attribute 23, 3
   9              		.eabi_attribute 24, 1
  10              		.eabi_attribute 25, 1
  11              		.eabi_attribute 26, 1
  12              		.eabi_attribute 30, 1
  13              		.eabi_attribute 34, 1
  14              		.eabi_attribute 18, 4
  15              		.file	"main.c"
  16              		.text
  17              	.Ltext0:
  18              		.cfi_sections	.debug_frame
  19              		.file 1 "/home/yan/Work/STM32KBD/firmware/code/src/main.c"
  20              		.section	.text.SystemClock_Config,"ax",%progbits
  21              		.align	1
  22              		.global	SystemClock_Config
  23              		.syntax unified
  24              		.thumb
  25              		.thumb_func
  27              	SystemClock_Config:
  28              	.LFB134:
   1:/home/yan/Work/STM32KBD/firmware/code/src/main.c **** #include "main.h"
   2:/home/yan/Work/STM32KBD/firmware/code/src/main.c **** #include "gpio.h"
   3:/home/yan/Work/STM32KBD/firmware/code/src/main.c **** #include "debugging.h"
   4:/home/yan/Work/STM32KBD/firmware/code/src/main.c **** 
   5:/home/yan/Work/STM32KBD/firmware/code/src/main.c **** #include <stdio.h>
   6:/home/yan/Work/STM32KBD/firmware/code/src/main.c **** 
   7:/home/yan/Work/STM32KBD/firmware/code/src/main.c **** void SystemClock_Config(void);
   8:/home/yan/Work/STM32KBD/firmware/code/src/main.c **** 
   9:/home/yan/Work/STM32KBD/firmware/code/src/main.c **** int main(void)
  10:/home/yan/Work/STM32KBD/firmware/code/src/main.c **** {
  11:/home/yan/Work/STM32KBD/firmware/code/src/main.c ****   HAL_Init();
  12:/home/yan/Work/STM32KBD/firmware/code/src/main.c **** 
  13:/home/yan/Work/STM32KBD/firmware/code/src/main.c ****   SystemClock_Config();
  14:/home/yan/Work/STM32KBD/firmware/code/src/main.c **** 
  15:/home/yan/Work/STM32KBD/firmware/code/src/main.c ****   GPIO_Init();
  16:/home/yan/Work/STM32KBD/firmware/code/src/main.c ****   DMA_Init();
  17:/home/yan/Work/STM32KBD/firmware/code/src/main.c ****   USART2_UART_Init();
  18:/home/yan/Work/STM32KBD/firmware/code/src/main.c **** 
  19:/home/yan/Work/STM32KBD/firmware/code/src/main.c ****   KBD_Init_Row(PIN_C0);
  20:/home/yan/Work/STM32KBD/firmware/code/src/main.c **** 
  21:/home/yan/Work/STM32KBD/firmware/code/src/main.c ****   int i = 0;
  22:/home/yan/Work/STM32KBD/firmware/code/src/main.c ****   while (1)
  23:/home/yan/Work/STM32KBD/firmware/code/src/main.c ****   {
  24:/home/yan/Work/STM32KBD/firmware/code/src/main.c ****     printf("Hello World! %d\r\n", i++);
  25:/home/yan/Work/STM32KBD/firmware/code/src/main.c ****     HAL_GPIO_TogglePin(GPIOC, GPIO_PIN_13);
  26:/home/yan/Work/STM32KBD/firmware/code/src/main.c ****     HAL_Delay(1000);
  27:/home/yan/Work/STM32KBD/firmware/code/src/main.c ****   }
  28:/home/yan/Work/STM32KBD/firmware/code/src/main.c **** }
  29:/home/yan/Work/STM32KBD/firmware/code/src/main.c **** 
  30:/home/yan/Work/STM32KBD/firmware/code/src/main.c **** void SystemClock_Config(void)
  31:/home/yan/Work/STM32KBD/firmware/code/src/main.c **** {
  29              		.loc 1 31 1 view -0
  30              		.cfi_startproc
  31              		@ args = 0, pretend = 0, frame = 80
  32              		@ frame_needed = 0, uses_anonymous_args = 0
  33 0000 00B5     		push	{lr}
  34              	.LCFI0:
  35              		.cfi_def_cfa_offset 4
  36              		.cfi_offset 14, -4
  37 0002 95B0     		sub	sp, sp, #84
  38              	.LCFI1:
  39              		.cfi_def_cfa_offset 88
  32:/home/yan/Work/STM32KBD/firmware/code/src/main.c ****   RCC_OscInitTypeDef RCC_OscInitStruct = {0};
  40              		.loc 1 32 3 view .LVU1
  41              		.loc 1 32 22 is_stmt 0 view .LVU2
  42 0004 3022     		movs	r2, #48
  43 0006 0021     		movs	r1, #0
  44 0008 08A8     		add	r0, sp, #32
  45 000a FFF7FEFF 		bl	memset
  46              	.LVL0:
  33:/home/yan/Work/STM32KBD/firmware/code/src/main.c ****   RCC_ClkInitTypeDef RCC_ClkInitStruct = {0};
  47              		.loc 1 33 3 is_stmt 1 view .LVU3
  48              		.loc 1 33 22 is_stmt 0 view .LVU4
  49 000e 0023     		movs	r3, #0
  50 0010 0393     		str	r3, [sp, #12]
  51 0012 0493     		str	r3, [sp, #16]
  52 0014 0593     		str	r3, [sp, #20]
  53 0016 0693     		str	r3, [sp, #24]
  54 0018 0793     		str	r3, [sp, #28]
  34:/home/yan/Work/STM32KBD/firmware/code/src/main.c **** 
  35:/home/yan/Work/STM32KBD/firmware/code/src/main.c ****   __HAL_RCC_PWR_CLK_ENABLE();
  55              		.loc 1 35 3 is_stmt 1 view .LVU5
  56              	.LBB2:
  57              		.loc 1 35 3 view .LVU6
  58 001a 0193     		str	r3, [sp, #4]
  59              		.loc 1 35 3 view .LVU7
  60 001c 214A     		ldr	r2, .L7
  61 001e 116C     		ldr	r1, [r2, #64]
  62 0020 41F08051 		orr	r1, r1, #268435456
  63 0024 1164     		str	r1, [r2, #64]
  64              		.loc 1 35 3 view .LVU8
  65 0026 126C     		ldr	r2, [r2, #64]
  66 0028 02F08052 		and	r2, r2, #268435456
  67 002c 0192     		str	r2, [sp, #4]
  68              		.loc 1 35 3 view .LVU9
  69 002e 019A     		ldr	r2, [sp, #4]
  70              	.LBE2:
  71              		.loc 1 35 3 view .LVU10
  36:/home/yan/Work/STM32KBD/firmware/code/src/main.c ****   __HAL_PWR_VOLTAGESCALING_CONFIG(PWR_REGULATOR_VOLTAGE_SCALE2);
  72              		.loc 1 36 3 view .LVU11
  73              	.LBB3:
  74              		.loc 1 36 3 view .LVU12
  75 0030 0293     		str	r3, [sp, #8]
  76              		.loc 1 36 3 view .LVU13
  77 0032 1D4A     		ldr	r2, .L7+4
  78 0034 1368     		ldr	r3, [r2]
  79 0036 23F44043 		bic	r3, r3, #49152
  80 003a 43F40043 		orr	r3, r3, #32768
  81 003e 1360     		str	r3, [r2]
  82              		.loc 1 36 3 view .LVU14
  83 0040 1368     		ldr	r3, [r2]
  84 0042 03F44043 		and	r3, r3, #49152
  85 0046 0293     		str	r3, [sp, #8]
  86              		.loc 1 36 3 view .LVU15
  87 0048 029B     		ldr	r3, [sp, #8]
  88              	.LBE3:
  89              		.loc 1 36 3 view .LVU16
  37:/home/yan/Work/STM32KBD/firmware/code/src/main.c **** 
  38:/home/yan/Work/STM32KBD/firmware/code/src/main.c ****   RCC_OscInitStruct.OscillatorType = RCC_OSCILLATORTYPE_HSE;
  90              		.loc 1 38 3 view .LVU17
  91              		.loc 1 38 36 is_stmt 0 view .LVU18
  92 004a 0123     		movs	r3, #1
  93 004c 0893     		str	r3, [sp, #32]
  39:/home/yan/Work/STM32KBD/firmware/code/src/main.c ****   RCC_OscInitStruct.HSEState = RCC_HSE_ON;
  94              		.loc 1 39 3 is_stmt 1 view .LVU19
  95              		.loc 1 39 30 is_stmt 0 view .LVU20
  96 004e 4FF48033 		mov	r3, #65536
  97 0052 0993     		str	r3, [sp, #36]
  40:/home/yan/Work/STM32KBD/firmware/code/src/main.c ****   RCC_OscInitStruct.PLL.PLLState = RCC_PLL_ON;
  98              		.loc 1 40 3 is_stmt 1 view .LVU21
  99              		.loc 1 40 34 is_stmt 0 view .LVU22
 100 0054 0223     		movs	r3, #2
 101 0056 0E93     		str	r3, [sp, #56]
  41:/home/yan/Work/STM32KBD/firmware/code/src/main.c ****   RCC_OscInitStruct.PLL.PLLSource = RCC_PLLSOURCE_HSE;
 102              		.loc 1 41 3 is_stmt 1 view .LVU23
 103              		.loc 1 41 35 is_stmt 0 view .LVU24
 104 0058 4FF48003 		mov	r3, #4194304
 105 005c 0F93     		str	r3, [sp, #60]
  42:/home/yan/Work/STM32KBD/firmware/code/src/main.c ****   RCC_OscInitStruct.PLL.PLLM = 25;
 106              		.loc 1 42 3 is_stmt 1 view .LVU25
 107              		.loc 1 42 30 is_stmt 0 view .LVU26
 108 005e 1923     		movs	r3, #25
 109 0060 1093     		str	r3, [sp, #64]
  43:/home/yan/Work/STM32KBD/firmware/code/src/main.c ****   RCC_OscInitStruct.PLL.PLLN = 160;
 110              		.loc 1 43 3 is_stmt 1 view .LVU27
 111              		.loc 1 43 30 is_stmt 0 view .LVU28
 112 0062 A023     		movs	r3, #160
 113 0064 1193     		str	r3, [sp, #68]
  44:/home/yan/Work/STM32KBD/firmware/code/src/main.c ****   RCC_OscInitStruct.PLL.PLLP = RCC_PLLP_DIV4;
 114              		.loc 1 44 3 is_stmt 1 view .LVU29
 115              		.loc 1 44 30 is_stmt 0 view .LVU30
 116 0066 0423     		movs	r3, #4
 117 0068 1293     		str	r3, [sp, #72]
  45:/home/yan/Work/STM32KBD/firmware/code/src/main.c ****   RCC_OscInitStruct.PLL.PLLQ = 4;
 118              		.loc 1 45 3 is_stmt 1 view .LVU31
 119              		.loc 1 45 30 is_stmt 0 view .LVU32
 120 006a 1393     		str	r3, [sp, #76]
  46:/home/yan/Work/STM32KBD/firmware/code/src/main.c ****   if (HAL_RCC_OscConfig(&RCC_OscInitStruct) != HAL_OK)
 121              		.loc 1 46 3 is_stmt 1 view .LVU33
 122              		.loc 1 46 7 is_stmt 0 view .LVU34
 123 006c 08A8     		add	r0, sp, #32
 124 006e FFF7FEFF 		bl	HAL_RCC_OscConfig
 125              	.LVL1:
 126              		.loc 1 46 6 view .LVU35
 127 0072 88B9     		cbnz	r0, .L5
 128              	.L2:
  47:/home/yan/Work/STM32KBD/firmware/code/src/main.c ****   {
  48:/home/yan/Work/STM32KBD/firmware/code/src/main.c ****     Error_Handler();
  49:/home/yan/Work/STM32KBD/firmware/code/src/main.c ****   }
  50:/home/yan/Work/STM32KBD/firmware/code/src/main.c **** 
  51:/home/yan/Work/STM32KBD/firmware/code/src/main.c ****   RCC_ClkInitStruct.ClockType = RCC_CLOCKTYPE_HCLK|RCC_CLOCKTYPE_SYSCLK
 129              		.loc 1 51 3 is_stmt 1 view .LVU36
 130              		.loc 1 51 31 is_stmt 0 view .LVU37
 131 0074 0F23     		movs	r3, #15
 132 0076 0393     		str	r3, [sp, #12]
  52:/home/yan/Work/STM32KBD/firmware/code/src/main.c ****                               |RCC_CLOCKTYPE_PCLK1|RCC_CLOCKTYPE_PCLK2;
  53:/home/yan/Work/STM32KBD/firmware/code/src/main.c ****   RCC_ClkInitStruct.SYSCLKSource = RCC_SYSCLKSOURCE_PLLCLK;
 133              		.loc 1 53 3 is_stmt 1 view .LVU38
 134              		.loc 1 53 34 is_stmt 0 view .LVU39
 135 0078 0223     		movs	r3, #2
 136 007a 0493     		str	r3, [sp, #16]
  54:/home/yan/Work/STM32KBD/firmware/code/src/main.c ****   RCC_ClkInitStruct.AHBCLKDivider = RCC_SYSCLK_DIV1;
 137              		.loc 1 54 3 is_stmt 1 view .LVU40
 138              		.loc 1 54 35 is_stmt 0 view .LVU41
 139 007c 0023     		movs	r3, #0
 140 007e 0593     		str	r3, [sp, #20]
  55:/home/yan/Work/STM32KBD/firmware/code/src/main.c ****   RCC_ClkInitStruct.APB1CLKDivider = RCC_HCLK_DIV1;
 141              		.loc 1 55 3 is_stmt 1 view .LVU42
 142              		.loc 1 55 36 is_stmt 0 view .LVU43
 143 0080 0693     		str	r3, [sp, #24]
  56:/home/yan/Work/STM32KBD/firmware/code/src/main.c ****   RCC_ClkInitStruct.APB2CLKDivider = RCC_HCLK_DIV1;
 144              		.loc 1 56 3 is_stmt 1 view .LVU44
 145              		.loc 1 56 36 is_stmt 0 view .LVU45
 146 0082 0793     		str	r3, [sp, #28]
  57:/home/yan/Work/STM32KBD/firmware/code/src/main.c **** 
  58:/home/yan/Work/STM32KBD/firmware/code/src/main.c ****   if (HAL_RCC_ClockConfig(&RCC_ClkInitStruct, FLASH_LATENCY_1) != HAL_OK)
 147              		.loc 1 58 3 is_stmt 1 view .LVU46
 148              		.loc 1 58 7 is_stmt 0 view .LVU47
 149 0084 0121     		movs	r1, #1
 150 0086 03A8     		add	r0, sp, #12
 151 0088 FFF7FEFF 		bl	HAL_RCC_ClockConfig
 152              	.LVL2:
 153              		.loc 1 58 6 view .LVU48
 154 008c 38B9     		cbnz	r0, .L6
 155              	.L3:
  59:/home/yan/Work/STM32KBD/firmware/code/src/main.c ****   {
  60:/home/yan/Work/STM32KBD/firmware/code/src/main.c ****     Error_Handler();
  61:/home/yan/Work/STM32KBD/firmware/code/src/main.c ****   }
  62:/home/yan/Work/STM32KBD/firmware/code/src/main.c **** 
  63:/home/yan/Work/STM32KBD/firmware/code/src/main.c ****   HAL_RCC_EnableCSS();
 156              		.loc 1 63 3 is_stmt 1 view .LVU49
 157 008e FFF7FEFF 		bl	HAL_RCC_EnableCSS
 158              	.LVL3:
  64:/home/yan/Work/STM32KBD/firmware/code/src/main.c **** }
 159              		.loc 1 64 1 is_stmt 0 view .LVU50
 160 0092 15B0     		add	sp, sp, #84
 161              	.LCFI2:
 162              		.cfi_remember_state
 163              		.cfi_def_cfa_offset 4
 164              		@ sp needed
 165 0094 5DF804FB 		ldr	pc, [sp], #4
 166              	.L5:
 167              	.LCFI3:
 168              		.cfi_restore_state
  48:/home/yan/Work/STM32KBD/firmware/code/src/main.c ****   }
 169              		.loc 1 48 5 is_stmt 1 view .LVU51
 170 0098 FFF7FEFF 		bl	Error_Handler
 171              	.LVL4:
 172 009c EAE7     		b	.L2
 173              	.L6:
  60:/home/yan/Work/STM32KBD/firmware/code/src/main.c ****   }
 174              		.loc 1 60 5 view .LVU52
 175 009e FFF7FEFF 		bl	Error_Handler
 176              	.LVL5:
 177 00a2 F4E7     		b	.L3
 178              	.L8:
 179              		.align	2
 180              	.L7:
 181 00a4 00380240 		.word	1073887232
 182 00a8 00700040 		.word	1073770496
 183              		.cfi_endproc
 184              	.LFE134:
 186              		.section	.rodata.main.str1.4,"aMS",%progbits,1
 187              		.align	2
 188              	.LC0:
 189 0000 48656C6C 		.ascii	"Hello World! %d\015\012\000"
 189      6F20576F 
 189      726C6421 
 189      2025640D 
 189      0A00
 190              		.section	.text.main,"ax",%progbits
 191              		.align	1
 192              		.global	main
 193              		.syntax unified
 194              		.thumb
 195              		.thumb_func
 197              	main:
 198              	.LFB133:
  10:/home/yan/Work/STM32KBD/firmware/code/src/main.c ****   HAL_Init();
 199              		.loc 1 10 1 view -0
 200              		.cfi_startproc
 201              		@ args = 0, pretend = 0, frame = 0
 202              		@ frame_needed = 0, uses_anonymous_args = 0
 203 0000 10B5     		push	{r4, lr}
 204              	.LCFI4:
 205              		.cfi_def_cfa_offset 8
 206              		.cfi_offset 4, -8
 207              		.cfi_offset 14, -4
  11:/home/yan/Work/STM32KBD/firmware/code/src/main.c **** 
 208              		.loc 1 11 3 view .LVU54
 209 0002 FFF7FEFF 		bl	HAL_Init
 210              	.LVL6:
  13:/home/yan/Work/STM32KBD/firmware/code/src/main.c **** 
 211              		.loc 1 13 3 view .LVU55
 212 0006 FFF7FEFF 		bl	SystemClock_Config
 213              	.LVL7:
  15:/home/yan/Work/STM32KBD/firmware/code/src/main.c ****   DMA_Init();
 214              		.loc 1 15 3 view .LVU56
 215 000a FFF7FEFF 		bl	GPIO_Init
 216              	.LVL8:
  16:/home/yan/Work/STM32KBD/firmware/code/src/main.c ****   USART2_UART_Init();
 217              		.loc 1 16 3 view .LVU57
 218 000e FFF7FEFF 		bl	DMA_Init
 219              	.LVL9:
  17:/home/yan/Work/STM32KBD/firmware/code/src/main.c **** 
 220              		.loc 1 17 3 view .LVU58
 221 0012 FFF7FEFF 		bl	USART2_UART_Init
 222              	.LVL10:
  19:/home/yan/Work/STM32KBD/firmware/code/src/main.c **** 
 223              		.loc 1 19 3 view .LVU59
 224 0016 2020     		movs	r0, #32
 225 0018 FFF7FEFF 		bl	KBD_Init_Row
 226              	.LVL11:
  21:/home/yan/Work/STM32KBD/firmware/code/src/main.c ****   while (1)
 227              		.loc 1 21 3 view .LVU60
  21:/home/yan/Work/STM32KBD/firmware/code/src/main.c ****   while (1)
 228              		.loc 1 21 7 is_stmt 0 view .LVU61
 229 001c 0021     		movs	r1, #0
 230              	.LVL12:
 231              	.L10:
  22:/home/yan/Work/STM32KBD/firmware/code/src/main.c ****   {
 232              		.loc 1 22 3 is_stmt 1 discriminator 1 view .LVU62
  24:/home/yan/Work/STM32KBD/firmware/code/src/main.c ****     HAL_GPIO_TogglePin(GPIOC, GPIO_PIN_13);
 233              		.loc 1 24 5 discriminator 1 view .LVU63
 234 001e 4C1C     		adds	r4, r1, #1
 235              	.LVL13:
  24:/home/yan/Work/STM32KBD/firmware/code/src/main.c ****     HAL_GPIO_TogglePin(GPIOC, GPIO_PIN_13);
 236              		.loc 1 24 5 is_stmt 0 discriminator 1 view .LVU64
 237 0020 0648     		ldr	r0, .L12
 238 0022 FFF7FEFF 		bl	printf
 239              	.LVL14:
  25:/home/yan/Work/STM32KBD/firmware/code/src/main.c ****     HAL_Delay(1000);
 240              		.loc 1 25 5 is_stmt 1 discriminator 1 view .LVU65
 241 0026 4FF40051 		mov	r1, #8192
 242 002a 0548     		ldr	r0, .L12+4
 243 002c FFF7FEFF 		bl	HAL_GPIO_TogglePin
 244              	.LVL15:
  26:/home/yan/Work/STM32KBD/firmware/code/src/main.c ****   }
 245              		.loc 1 26 5 discriminator 1 view .LVU66
 246 0030 4FF47A70 		mov	r0, #1000
 247 0034 FFF7FEFF 		bl	HAL_Delay
 248              	.LVL16:
  22:/home/yan/Work/STM32KBD/firmware/code/src/main.c ****   {
 249              		.loc 1 22 9 discriminator 1 view .LVU67
  24:/home/yan/Work/STM32KBD/firmware/code/src/main.c ****     HAL_GPIO_TogglePin(GPIOC, GPIO_PIN_13);
 250              		.loc 1 24 5 is_stmt 0 discriminator 1 view .LVU68
 251 0038 2146     		mov	r1, r4
 252 003a F0E7     		b	.L10
 253              	.L13:
 254              		.align	2
 255              	.L12:
 256 003c 00000000 		.word	.LC0
 257 0040 00080240 		.word	1073874944
 258              		.cfi_endproc
 259              	.LFE133:
 261              		.text
 262              	.Letext0:
 263              		.file 2 "/usr/lib/gcc/arm-none-eabi/12.2.1/include/stdint.h"
 264              		.file 3 "/home/yan/Work/STM32KBD/firmware/stm32cube_mcu_package/STM32CubeF4/Drivers/CMSIS/Device/S
 265              		.file 4 "/home/yan/Work/STM32KBD/firmware/stm32cube_mcu_package/STM32CubeF4/Drivers/STM32F4xx_HAL_
 266              		.file 5 "/home/yan/Work/STM32KBD/firmware/stm32cube_mcu_package/STM32CubeF4/Drivers/STM32F4xx_HAL_
 267              		.file 6 "/home/yan/Work/STM32KBD/firmware/stm32cube_mcu_package/STM32CubeF4/Drivers/STM32F4xx_HAL_
 268              		.file 7 "/home/yan/Work/STM32KBD/firmware/code/include/gpio.h"
 269              		.file 8 "/home/yan/Work/STM32KBD/firmware/code/include/debugging.h"
 270              		.file 9 "/home/yan/Work/STM32KBD/firmware/stm32cube_mcu_package/STM32CubeF4/Drivers/STM32F4xx_HAL_
 271              		.file 10 "/home/yan/Work/STM32KBD/firmware/stm32cube_mcu_package/STM32CubeF4/Drivers/STM32F4xx_HAL
 272              		.file 11 "/usr/include/newlib/stdio.h"
 273              		.file 12 "/home/yan/Work/STM32KBD/firmware/code/include/hal.h"
 274              		.file 13 "<built-in>"