   1              		.cpu cortex-m4
   2              		.arch armv7e-m
   3              		.fpu fpv4-sp-d16
   4              		.eabi_attribute 27, 1
   5              		.eabi_attribute 28, 1
   6              		.eabi_attribute 20, 1
   7              		.eabi_attribute 21, 1
   8              		.eabi_attribute 23, 3
   9              		.eabi_attribute 24, 1
  10              		.eabi_attribute 25, 1
  11              		.eabi_attribute 26, 1
  12              		.eabi_attribute 30, 1
  13              		.eabi_attribute 34, 1
  14              		.eabi_attribute 18, 4
  15              		.file	"stm32_it.c"
  16              		.text
  17              	.Ltext0:
  18              		.cfi_sections	.debug_frame
  19              		.file 1 "/home/yan/Work/STM32KBD/firmware/code/src/stm32_it.c"
  20              		.section	.text.NMI_Handler,"ax",%progbits
  21              		.align	1
  22              		.global	NMI_Handler
  23              		.syntax unified
  24              		.thumb
  25              		.thumb_func
  27              	NMI_Handler:
  28              	.LFB130:
   1:/home/yan/Work/STM32KBD/firmware/code/src/stm32_it.c **** #include "hal.h"
   2:/home/yan/Work/STM32KBD/firmware/code/src/stm32_it.c **** #include "stm32_it.h"
   3:/home/yan/Work/STM32KBD/firmware/code/src/stm32_it.c **** 
   4:/home/yan/Work/STM32KBD/firmware/code/src/stm32_it.c **** // generic handlers
   5:/home/yan/Work/STM32KBD/firmware/code/src/stm32_it.c **** 
   6:/home/yan/Work/STM32KBD/firmware/code/src/stm32_it.c **** void NMI_Handler(void)
   7:/home/yan/Work/STM32KBD/firmware/code/src/stm32_it.c **** {
  29              		.loc 1 7 1 view -0
  30              		.cfi_startproc
  31              		@ Volatile: function does not return.
  32              		@ args = 0, pretend = 0, frame = 0
  33              		@ frame_needed = 0, uses_anonymous_args = 0
  34 0000 08B5     		push	{r3, lr}
  35              	.LCFI0:
  36              		.cfi_def_cfa_offset 8
  37              		.cfi_offset 3, -8
  38              		.cfi_offset 14, -4
   8:/home/yan/Work/STM32KBD/firmware/code/src/stm32_it.c ****   HAL_RCC_NMI_IRQHandler();
  39              		.loc 1 8 3 view .LVU1
  40 0002 FFF7FEFF 		bl	HAL_RCC_NMI_IRQHandler
  41              	.LVL0:
  42              	.L2:
   9:/home/yan/Work/STM32KBD/firmware/code/src/stm32_it.c ****   while (1)
  43              		.loc 1 9 3 discriminator 1 view .LVU2
  10:/home/yan/Work/STM32KBD/firmware/code/src/stm32_it.c ****   {
  11:/home/yan/Work/STM32KBD/firmware/code/src/stm32_it.c ****   }
  44              		.loc 1 11 3 discriminator 1 view .LVU3
   9:/home/yan/Work/STM32KBD/firmware/code/src/stm32_it.c ****   while (1)
  45              		.loc 1 9 9 discriminator 1 view .LVU4
  46 0006 FEE7     		b	.L2
  47              		.cfi_endproc
  48              	.LFE130:
  50              		.section	.text.HardFault_Handler,"ax",%progbits
  51              		.align	1
  52              		.global	HardFault_Handler
  53              		.syntax unified
  54              		.thumb
  55              		.thumb_func
  57              	HardFault_Handler:
  58              	.LFB131:
  12:/home/yan/Work/STM32KBD/firmware/code/src/stm32_it.c **** }
  13:/home/yan/Work/STM32KBD/firmware/code/src/stm32_it.c **** 
  14:/home/yan/Work/STM32KBD/firmware/code/src/stm32_it.c **** void HardFault_Handler(void)
  15:/home/yan/Work/STM32KBD/firmware/code/src/stm32_it.c **** {
  59              		.loc 1 15 1 view -0
  60              		.cfi_startproc
  61              		@ Volatile: function does not return.
  62              		@ args = 0, pretend = 0, frame = 0
  63              		@ frame_needed = 0, uses_anonymous_args = 0
  64              		@ link register save eliminated.
  65              	.L5:
  16:/home/yan/Work/STM32KBD/firmware/code/src/stm32_it.c ****   while (1)
  66              		.loc 1 16 3 discriminator 1 view .LVU6
  17:/home/yan/Work/STM32KBD/firmware/code/src/stm32_it.c ****   {
  18:/home/yan/Work/STM32KBD/firmware/code/src/stm32_it.c ****   }
  67              		.loc 1 18 3 discriminator 1 view .LVU7
  16:/home/yan/Work/STM32KBD/firmware/code/src/stm32_it.c ****   while (1)
  68              		.loc 1 16 9 discriminator 1 view .LVU8
  69 0000 FEE7     		b	.L5
  70              		.cfi_endproc
  71              	.LFE131:
  73              		.section	.text.MemManage_Handler,"ax",%progbits
  74              		.align	1
  75              		.global	MemManage_Handler
  76              		.syntax unified
  77              		.thumb
  78              		.thumb_func
  80              	MemManage_Handler:
  81              	.LFB132:
  19:/home/yan/Work/STM32KBD/firmware/code/src/stm32_it.c **** }
  20:/home/yan/Work/STM32KBD/firmware/code/src/stm32_it.c **** 
  21:/home/yan/Work/STM32KBD/firmware/code/src/stm32_it.c **** void MemManage_Handler(void)
  22:/home/yan/Work/STM32KBD/firmware/code/src/stm32_it.c **** {
  82              		.loc 1 22 1 view -0
  83              		.cfi_startproc
  84              		@ Volatile: function does not return.
  85              		@ args = 0, pretend = 0, frame = 0
  86              		@ frame_needed = 0, uses_anonymous_args = 0
  87              		@ link register save eliminated.
  88              	.L7:
  23:/home/yan/Work/STM32KBD/firmware/code/src/stm32_it.c ****   while (1)
  89              		.loc 1 23 3 discriminator 1 view .LVU10
  24:/home/yan/Work/STM32KBD/firmware/code/src/stm32_it.c ****   {
  25:/home/yan/Work/STM32KBD/firmware/code/src/stm32_it.c ****   }
  90              		.loc 1 25 3 discriminator 1 view .LVU11
  23:/home/yan/Work/STM32KBD/firmware/code/src/stm32_it.c ****   while (1)
  91              		.loc 1 23 9 discriminator 1 view .LVU12
  92 0000 FEE7     		b	.L7
  93              		.cfi_endproc
  94              	.LFE132:
  96              		.section	.text.BusFault_Handler,"ax",%progbits
  97              		.align	1
  98              		.global	BusFault_Handler
  99              		.syntax unified
 100              		.thumb
 101              		.thumb_func
 103              	BusFault_Handler:
 104              	.LFB133:
  26:/home/yan/Work/STM32KBD/firmware/code/src/stm32_it.c **** }
  27:/home/yan/Work/STM32KBD/firmware/code/src/stm32_it.c **** 
  28:/home/yan/Work/STM32KBD/firmware/code/src/stm32_it.c **** void BusFault_Handler(void)
  29:/home/yan/Work/STM32KBD/firmware/code/src/stm32_it.c **** {
 105              		.loc 1 29 1 view -0
 106              		.cfi_startproc
 107              		@ Volatile: function does not return.
 108              		@ args = 0, pretend = 0, frame = 0
 109              		@ frame_needed = 0, uses_anonymous_args = 0
 110              		@ link register save eliminated.
 111              	.L9:
  30:/home/yan/Work/STM32KBD/firmware/code/src/stm32_it.c ****   while (1)
 112              		.loc 1 30 3 discriminator 1 view .LVU14
  31:/home/yan/Work/STM32KBD/firmware/code/src/stm32_it.c ****   {
  32:/home/yan/Work/STM32KBD/firmware/code/src/stm32_it.c ****   }
 113              		.loc 1 32 3 discriminator 1 view .LVU15
  30:/home/yan/Work/STM32KBD/firmware/code/src/stm32_it.c ****   while (1)
 114              		.loc 1 30 9 discriminator 1 view .LVU16
 115 0000 FEE7     		b	.L9
 116              		.cfi_endproc
 117              	.LFE133:
 119              		.section	.text.UsageFault_Handler,"ax",%progbits
 120              		.align	1
 121              		.global	UsageFault_Handler
 122              		.syntax unified
 123              		.thumb
 124              		.thumb_func
 126              	UsageFault_Handler:
 127              	.LFB134:
  33:/home/yan/Work/STM32KBD/firmware/code/src/stm32_it.c **** }
  34:/home/yan/Work/STM32KBD/firmware/code/src/stm32_it.c **** 
  35:/home/yan/Work/STM32KBD/firmware/code/src/stm32_it.c **** void UsageFault_Handler(void)
  36:/home/yan/Work/STM32KBD/firmware/code/src/stm32_it.c **** {
 128              		.loc 1 36 1 view -0
 129              		.cfi_startproc
 130              		@ Volatile: function does not return.
 131              		@ args = 0, pretend = 0, frame = 0
 132              		@ frame_needed = 0, uses_anonymous_args = 0
 133              		@ link register save eliminated.
 134              	.L11:
  37:/home/yan/Work/STM32KBD/firmware/code/src/stm32_it.c ****   while (1)
 135              		.loc 1 37 3 discriminator 1 view .LVU18
  38:/home/yan/Work/STM32KBD/firmware/code/src/stm32_it.c ****   {
  39:/home/yan/Work/STM32KBD/firmware/code/src/stm32_it.c ****   }
 136              		.loc 1 39 3 discriminator 1 view .LVU19
  37:/home/yan/Work/STM32KBD/firmware/code/src/stm32_it.c ****   while (1)
 137              		.loc 1 37 9 discriminator 1 view .LVU20
 138 0000 FEE7     		b	.L11
 139              		.cfi_endproc
 140              	.LFE134:
 142              		.section	.text.SVC_Handler,"ax",%progbits
 143              		.align	1
 144              		.global	SVC_Handler
 145              		.syntax unified
 146              		.thumb
 147              		.thumb_func
 149              	SVC_Handler:
 150              	.LFB135:
  40:/home/yan/Work/STM32KBD/firmware/code/src/stm32_it.c **** }
  41:/home/yan/Work/STM32KBD/firmware/code/src/stm32_it.c **** 
  42:/home/yan/Work/STM32KBD/firmware/code/src/stm32_it.c **** void SVC_Handler(void)
  43:/home/yan/Work/STM32KBD/firmware/code/src/stm32_it.c **** {
 151              		.loc 1 43 1 view -0
 152              		.cfi_startproc
 153              		@ args = 0, pretend = 0, frame = 0
 154              		@ frame_needed = 0, uses_anonymous_args = 0
 155              		@ link register save eliminated.
  44:/home/yan/Work/STM32KBD/firmware/code/src/stm32_it.c **** }
 156              		.loc 1 44 1 view .LVU22
 157 0000 7047     		bx	lr
 158              		.cfi_endproc
 159              	.LFE135:
 161              		.section	.text.DebugMon_Handler,"ax",%progbits
 162              		.align	1
 163              		.global	DebugMon_Handler
 164              		.syntax unified
 165              		.thumb
 166              		.thumb_func
 168              	DebugMon_Handler:
 169              	.LFB136:
  45:/home/yan/Work/STM32KBD/firmware/code/src/stm32_it.c **** 
  46:/home/yan/Work/STM32KBD/firmware/code/src/stm32_it.c **** void DebugMon_Handler(void)
  47:/home/yan/Work/STM32KBD/firmware/code/src/stm32_it.c **** {
 170              		.loc 1 47 1 view -0
 171              		.cfi_startproc
 172              		@ args = 0, pretend = 0, frame = 0
 173              		@ frame_needed = 0, uses_anonymous_args = 0
 174              		@ link register save eliminated.
  48:/home/yan/Work/STM32KBD/firmware/code/src/stm32_it.c **** }
 175              		.loc 1 48 1 view .LVU24
 176 0000 7047     		bx	lr
 177              		.cfi_endproc
 178              	.LFE136:
 180              		.section	.text.PendSV_Handler,"ax",%progbits
 181              		.align	1
 182              		.global	PendSV_Handler
 183              		.syntax unified
 184              		.thumb
 185              		.thumb_func
 187              	PendSV_Handler:
 188              	.LFB137:
  49:/home/yan/Work/STM32KBD/firmware/code/src/stm32_it.c **** 
  50:/home/yan/Work/STM32KBD/firmware/code/src/stm32_it.c **** void PendSV_Handler(void)
  51:/home/yan/Work/STM32KBD/firmware/code/src/stm32_it.c **** {
 189              		.loc 1 51 1 view -0
 190              		.cfi_startproc
 191              		@ args = 0, pretend = 0, frame = 0
 192              		@ frame_needed = 0, uses_anonymous_args = 0
 193              		@ link register save eliminated.
  52:/home/yan/Work/STM32KBD/firmware/code/src/stm32_it.c **** }
 194              		.loc 1 52 1 view .LVU26
 195 0000 7047     		bx	lr
 196              		.cfi_endproc
 197              	.LFE137:
 199              		.section	.text.SysTick_Handler,"ax",%progbits
 200              		.align	1
 201              		.global	SysTick_Handler
 202              		.syntax unified
 203              		.thumb
 204              		.thumb_func
 206              	SysTick_Handler:
 207              	.LFB138:
  53:/home/yan/Work/STM32KBD/firmware/code/src/stm32_it.c **** 
  54:/home/yan/Work/STM32KBD/firmware/code/src/stm32_it.c **** void SysTick_Handler(void)
  55:/home/yan/Work/STM32KBD/firmware/code/src/stm32_it.c **** {
 208              		.loc 1 55 1 view -0
 209              		.cfi_startproc
 210              		@ args = 0, pretend = 0, frame = 0
 211              		@ frame_needed = 0, uses_anonymous_args = 0
 212 0000 08B5     		push	{r3, lr}
 213              	.LCFI1:
 214              		.cfi_def_cfa_offset 8
 215              		.cfi_offset 3, -8
 216              		.cfi_offset 14, -4
  56:/home/yan/Work/STM32KBD/firmware/code/src/stm32_it.c ****   HAL_IncTick();
 217              		.loc 1 56 3 view .LVU28
 218 0002 FFF7FEFF 		bl	HAL_IncTick
 219              	.LVL1:
  57:/home/yan/Work/STM32KBD/firmware/code/src/stm32_it.c **** }
 220              		.loc 1 57 1 is_stmt 0 view .LVU29
 221 0006 08BD     		pop	{r3, pc}
 222              		.cfi_endproc
 223              	.LFE138:
 225              		.section	.text.DMA1_Stream6_IRQHandler,"ax",%progbits
 226              		.align	1
 227              		.global	DMA1_Stream6_IRQHandler
 228              		.syntax unified
 229              		.thumb
 230              		.thumb_func
 232              	DMA1_Stream6_IRQHandler:
 233              	.LFB139:
  58:/home/yan/Work/STM32KBD/firmware/code/src/stm32_it.c **** 
  59:/home/yan/Work/STM32KBD/firmware/code/src/stm32_it.c **** // peripheral handlers
  60:/home/yan/Work/STM32KBD/firmware/code/src/stm32_it.c **** 
  61:/home/yan/Work/STM32KBD/firmware/code/src/stm32_it.c **** extern DMA_HandleTypeDef hdma_usart2_tx;
  62:/home/yan/Work/STM32KBD/firmware/code/src/stm32_it.c **** extern UART_HandleTypeDef huart2;
  63:/home/yan/Work/STM32KBD/firmware/code/src/stm32_it.c **** 
  64:/home/yan/Work/STM32KBD/firmware/code/src/stm32_it.c **** void DMA1_Stream6_IRQHandler(void)
  65:/home/yan/Work/STM32KBD/firmware/code/src/stm32_it.c **** {
 234              		.loc 1 65 1 is_stmt 1 view -0
 235              		.cfi_startproc
 236              		@ args = 0, pretend = 0, frame = 0
 237              		@ frame_needed = 0, uses_anonymous_args = 0
 238 0000 08B5     		push	{r3, lr}
 239              	.LCFI2:
 240              		.cfi_def_cfa_offset 8
 241              		.cfi_offset 3, -8
 242              		.cfi_offset 14, -4
  66:/home/yan/Work/STM32KBD/firmware/code/src/stm32_it.c ****   HAL_DMA_IRQHandler(&hdma_usart2_tx);
 243              		.loc 1 66 3 view .LVU31
 244 0002 0248     		ldr	r0, .L19
 245 0004 FFF7FEFF 		bl	HAL_DMA_IRQHandler
 246              	.LVL2:
  67:/home/yan/Work/STM32KBD/firmware/code/src/stm32_it.c **** }
 247              		.loc 1 67 1 is_stmt 0 view .LVU32
 248 0008 08BD     		pop	{r3, pc}
 249              	.L20:
 250 000a 00BF     		.align	2
 251              	.L19:
 252 000c 00000000 		.word	hdma_usart2_tx
 253              		.cfi_endproc
 254              	.LFE139:
 256              		.section	.text.USART2_IRQHandler,"ax",%progbits
 257              		.align	1
 258              		.global	USART2_IRQHandler
 259              		.syntax unified
 260              		.thumb
 261              		.thumb_func
 263              	USART2_IRQHandler:
 264              	.LFB140:
  68:/home/yan/Work/STM32KBD/firmware/code/src/stm32_it.c **** 
  69:/home/yan/Work/STM32KBD/firmware/code/src/stm32_it.c **** void USART2_IRQHandler(void)
  70:/home/yan/Work/STM32KBD/firmware/code/src/stm32_it.c **** {
 265              		.loc 1 70 1 is_stmt 1 view -0
 266              		.cfi_startproc
 267              		@ args = 0, pretend = 0, frame = 0
 268              		@ frame_needed = 0, uses_anonymous_args = 0
 269 0000 08B5     		push	{r3, lr}
 270              	.LCFI3:
 271              		.cfi_def_cfa_offset 8
 272              		.cfi_offset 3, -8
 273              		.cfi_offset 14, -4
  71:/home/yan/Work/STM32KBD/firmware/code/src/stm32_it.c ****   HAL_UART_IRQHandler(&huart2);
 274              		.loc 1 71 3 view .LVU34
 275 0002 0248     		ldr	r0, .L23
 276 0004 FFF7FEFF 		bl	HAL_UART_IRQHandler
 277              	.LVL3:
  72:/home/yan/Work/STM32KBD/firmware/code/src/stm32_it.c **** }
 278              		.loc 1 72 1 is_stmt 0 view .LVU35
 279 0008 08BD     		pop	{r3, pc}
 280              	.L24:
 281 000a 00BF     		.align	2
 282              	.L23:
 283 000c 00000000 		.word	huart2
 284              		.cfi_endproc
 285              	.LFE140:
 287              		.text
 288              	.Letext0:
 289              		.file 2 "/usr/lib/gcc/arm-none-eabi/12.2.1/include/stdint.h"
 290              		.file 3 "/home/yan/Work/STM32KBD/firmware/stm32cube_mcu_package/STM32CubeF4/Drivers/CMSIS/Device/S
 291              		.file 4 "/home/yan/Work/STM32KBD/firmware/stm32cube_mcu_package/STM32CubeF4/Drivers/STM32F4xx_HAL_
 292              		.file 5 "/home/yan/Work/STM32KBD/firmware/stm32cube_mcu_package/STM32CubeF4/Drivers/STM32F4xx_HAL_
 293              		.file 6 "/home/yan/Work/STM32KBD/firmware/stm32cube_mcu_package/STM32CubeF4/Drivers/STM32F4xx_HAL_
 294              		.file 7 "/home/yan/Work/STM32KBD/firmware/stm32cube_mcu_package/STM32CubeF4/Drivers/STM32F4xx_HAL_
 295              		.file 8 "/home/yan/Work/STM32KBD/firmware/stm32cube_mcu_package/STM32CubeF4/Drivers/STM32F4xx_HAL_